; Function Attrs: nounwind uwtable
define i32 @Prs_CreateBlifFindFon(ptr noundef readonly captures(none) %0, i32 noundef %1) local_unnamed_addr #0 {
  %.val = load ptr, ptr %0, align 8, !tbaa !67
  %3 = getelementptr inbounds nuw i8, ptr %.val, i64 48
  %4 = add nsw i32 %1, 1
  %5 = getelementptr inbounds nuw i8, ptr %.val, i64 52
  %6 = load i32, ptr %5, align 4, !tbaa !28
  %.not.i.not.i.i.i = icmp slt i32 %1, %6
  br i1 %.not.i.not.i.i.i, label %Cba_NtkGetMap.exit, label %7

7:                                                ; preds = %2
  %8 = load i32, ptr %3, align 8, !tbaa !26
  %9 = shl nsw i32 %8, 1
  %.not.i.i.i = icmp slt i32 %1, %9
  %.not.i.i.not.i.i.i = icmp sgt i32 %8, %1
  br i1 %.not.i.i.i, label %22, label %10

10:                                               ; preds = %7
  br i1 %.not.i.i.not.i.i.i, label %Vec_IntGrow.exit.i.i.i.i, label %11

11:                                               ; preds = %10
  %12 = getelementptr inbounds nuw i8, ptr %.val, i64 56
  %13 = load ptr, ptr %12, align 8, !tbaa !27
  %.not9.i.i.i.i.i = icmp eq ptr %13, null
  %14 = sext i32 %4 to i64
  %15 = shl nsw i64 %14, 2
  br i1 %.not9.i.i.i.i.i, label %18, label %16

16:                                               ; preds = %11
  %17 = tail call ptr @realloc(ptr noundef nonnull %13, i64 noundef %15) #22
  br label %20

18:                                               ; preds = %11
  %19 = tail call noalias ptr @malloc(i64 noundef %15) #20
  br label %20

20:                                               ; preds = %18, %16
  %21 = phi ptr [ %17, %16 ], [ %19, %18 ]
  store ptr %21, ptr %12, align 8, !tbaa !27
  br label %Vec_IntGrow.exit.sink.split.i.i.i.i

22:                                               ; preds = %7
  br i1 %.not.i.i.not.i.i.i, label %Vec_IntGrow.exit.i.i.i.i, label %23

23:                                               ; preds = %22
  %24 = getelementptr inbounds nuw i8, ptr %.val, i64 56
  %25 = load ptr, ptr %24, align 8, !tbaa !27
  %.not9.i21.i.i.i.i = icmp eq ptr %25, null
  %26 = sext i32 %9 to i64
  %27 = shl nsw i64 %26, 2
  br i1 %.not9.i21.i.i.i.i, label %30, label %28

28:                                               ; preds = %23
  %29 = tail call ptr @realloc(ptr noundef nonnull %25, i64 noundef %27) #22
  br label %32

30:                                               ; preds = %23
  %31 = tail call noalias ptr @malloc(i64 noundef %27) #20
  br label %32

32:                                               ; preds = %30, %28
  %33 = phi ptr [ %29, %28 ], [ %31, %30 ]
  store ptr %33, ptr %24, align 8, !tbaa !27
  br label %Vec_IntGrow.exit.sink.split.i.i.i.i

Vec_IntGrow.exit.sink.split.i.i.i.i:              ; preds = %32, %20
  %.sink.i.i.i.i = phi i32 [ %9, %32 ], [ %4, %20 ]
  store i32 %.sink.i.i.i.i, ptr %3, align 8, !tbaa !26
  %.pre.i.i.i = load i32, ptr %5, align 4, !tbaa !28
  br label %Vec_IntGrow.exit.i.i.i.i

Vec_IntGrow.exit.i.i.i.i:                         ; preds = %Vec_IntGrow.exit.sink.split.i.i.i.i, %22, %10
  %34 = phi i32 [ %.pre.i.i.i, %Vec_IntGrow.exit.sink.split.i.i.i.i ], [ %6, %22 ], [ %6, %10 ]
  %.not3.i.i.i = icmp sgt i32 %34, %1
  br i1 %.not3.i.i.i, label %._crit_edge.i.i.i.i, label %.lr.ph.i.i.i.i

.lr.ph.i.i.i.i:                                   ; preds = %Vec_IntGrow.exit.i.i.i.i
  %35 = getelementptr inbounds nuw i8, ptr %.val, i64 56
  %36 = load ptr, ptr %35, align 8, !tbaa !27
  %37 = sext i32 %34 to i64
  %38 = shl nsw i64 %37, 2
  %scevgep.i.i.i.i = getelementptr i8, ptr %36, i64 %38
  %39 = sub i32 %1, %34
  %40 = zext i32 %39 to i64
  %41 = shl nuw nsw i64 %40, 2
  %42 = add nuw nsw i64 %41, 4
  tail call void @llvm.memset.p0.i64(ptr noundef nonnull align 4 dereferenceable(1) %scevgep.i.i.i.i, i8 0, i64 %42, i1 false), !tbaa !33
  br label %._crit_edge.i.i.i.i

._crit_edge.i.i.i.i:                              ; preds = %.lr.ph.i.i.i.i, %Vec_IntGrow.exit.i.i.i.i
  store i32 %4, ptr %5, align 4, !tbaa !28
  br label %Cba_NtkGetMap.exit

Cba_NtkGetMap.exit:                               ; preds = %2, %._crit_edge.i.i.i.i
  %43 = getelementptr i8, ptr %.val, i64 56
  %.val.i.i.i = load ptr, ptr %43, align 8, !tbaa !27
  %44 = sext i32 %1 to i64
  %45 = getelementptr inbounds i32, ptr %.val.i.i.i, i64 %44
  %46 = load i32, ptr %45, align 4, !tbaa !33
  %.not = icmp eq i32 %46, 0
  br i1 %.not, label %47, label %54

47:                                               ; preds = %Cba_NtkGetMap.exit
  %.val9 = load ptr, ptr %0, align 8, !tbaa !67
  %48 = getelementptr i8, ptr %0, i64 12
  %.val10 = load i32, ptr %48, align 4, !tbaa !70
  %49 = getelementptr i8, ptr %.val9, i64 16
  %.val9.val = load ptr, ptr %49, align 8, !tbaa !71
  %50 = tail call ptr @Abc_NamStr(ptr noundef %.val9.val, i32 noundef %.val10) #21
  %.val8 = load ptr, ptr %0, align 8, !tbaa !67
  %51 = getelementptr i8, ptr %.val8, i64 16
  %.val8.val = load ptr, ptr %51, align 8, !tbaa !71
  %52 = tail call ptr @Abc_NamStr(ptr noundef %.val8.val, i32 noundef %1) #21
  %53 = tail call i32 (ptr, ...) @printf(ptr noundef nonnull dereferenceable(1) @.str.7, ptr noundef %50, ptr noundef %52)
  br label %54

54:                                               ; preds = %Cba_NtkGetMap.exit, %47
  ret i32 %46
}